; Function Attrs: nounwind uwtable
define dso_local void @prep_g_prolog_slurmctld(ptr noundef %0) local_unnamed_addr #0 {
  %2 = alloca %struct.timeval, align 8
  %3 = alloca %struct.timeval, align 8
  %4 = alloca [20 x i8], align 16
  %5 = alloca i64, align 8
  %6 = alloca i8, align 1
  call void @llvm.lifetime.start.p0(i64 16, ptr nonnull %2) #9
  call void @llvm.lifetime.start.p0(i64 16, ptr nonnull %3) #9
  call void @llvm.lifetime.start.p0(i64 20, ptr nonnull %4) #9
  call void @llvm.memset.p0.i64(ptr noundef nonnull align 16 dereferenceable(20) %4, i8 0, i64 20, i1 false)
  call void @llvm.lifetime.start.p0(i64 8, ptr nonnull %5) #9
  %7 = call i32 @gettimeofday(ptr noundef nonnull %2, ptr noundef null) #9
  %8 = tail call i32 @pthread_rwlock_rdlock(ptr noundef nonnull @g_context_lock) #9
  %.not = icmp eq i32 %8, 0
  br i1 %.not, label %.preheader, label %12

.preheader:                                       ; preds = %1
  %9 = load i32, ptr @g_context_cnt, align 4
  %10 = icmp sgt i32 %9, 0
  br i1 %10, label %.lr.ph, label %._crit_edge

.lr.ph:                                           ; preds = %.preheader
  %11 = getelementptr inbounds nuw i8, ptr %0, i64 712
  br label %15

12:                                               ; preds = %1
  %13 = tail call ptr @__errno_location() #10
  store i32 %8, ptr %13, align 4
  tail call void (ptr, ...) @fatal_abort(ptr noundef nonnull @.str.8, ptr noundef nonnull @__func__.prep_g_prolog_slurmctld) #11
  unreachable

._crit_edge:                                      ; preds = %25, %.preheader
  %14 = call i32 @pthread_rwlock_unlock(ptr noundef nonnull @g_context_lock) #9
  %.not12 = icmp eq i32 %14, 0
  br i1 %.not12, label %33, label %31

15:                                               ; preds = %.lr.ph, %25
  %indvars.iv = phi i64 [ 0, %.lr.ph ], [ %indvars.iv.next, %25 ]
  call void @llvm.lifetime.start.p0(i64 1, ptr nonnull %6) #9
  store i8 0, ptr %6, align 1
  %16 = load ptr, ptr @ops, align 8
  %17 = getelementptr inbounds nuw %struct.prep_ops_t, ptr %16, i64 %indvars.iv, i32 3
  %18 = load ptr, ptr %17, align 8
  %19 = call i32 %18(ptr noundef %0, ptr noundef nonnull %6) #9
  %20 = load i8, ptr %6, align 1, !range !11, !noundef !12
  %21 = trunc nuw i8 %20 to i1
  br i1 %21, label %22, label %25

22:                                               ; preds = %15
  %23 = load i32, ptr %11, align 8
  %24 = add i32 %23, 1
  store i32 %24, ptr %11, align 8
  br label %25

25:                                               ; preds = %22, %15
  call void @llvm.lifetime.end.p0(i64 1, ptr nonnull %6) #9
  %indvars.iv.next = add nuw nsw i64 %indvars.iv, 1
  %26 = load i32, ptr @g_context_cnt, align 4
  %27 = sext i32 %26 to i64
  %28 = icmp slt i64 %indvars.iv.next, %27
  %29 = icmp eq i32 %19, 0
  %30 = select i1 %28, i1 %29, i1 false
  br i1 %30, label %15, label %._crit_edge, !llvm.loop !19

31:                                               ; preds = %._crit_edge
  %32 = tail call ptr @__errno_location() #10
  store i32 %14, ptr %32, align 4
  call void (ptr, ...) @fatal_abort(ptr noundef nonnull @.str.7, ptr noundef nonnull @__func__.prep_g_prolog_slurmctld) #11
  unreachable

33:                                               ; preds = %._crit_edge
  %34 = call i32 @gettimeofday(ptr noundef nonnull %3, ptr noundef null) #9
  call void @slurm_diff_tv_str(ptr noundef nonnull %2, ptr noundef nonnull %3, ptr noundef nonnull %4, i32 noundef 20, ptr noundef nonnull @__func__.prep_g_prolog_slurmctld, i64 noundef 0, ptr noundef nonnull %5) #9
  call void @llvm.lifetime.end.p0(i64 8, ptr nonnull %5) #9
  call void @llvm.lifetime.end.p0(i64 20, ptr nonnull %4) #9
  call void @llvm.lifetime.end.p0(i64 16, ptr nonnull %3) #9
  call void @llvm.lifetime.end.p0(i64 16, ptr nonnull %2) #9
  ret void
}